	.file	"branch_preditction.c"
	.text
.Ltext0:
	.comm	data,131072,32
	.comm	sdata,131072,32
	.globl	compare
	.type	compare, @function
compare:
.LFB2:
	.file 1 "branch_preditction.c"
	.loc 1 19 0
	.cfi_startproc
	pushq	%rbp
	.cfi_def_cfa_offset 16
	.cfi_offset 6, -16
	movq	%rsp, %rbp
	.cfi_def_cfa_register 6
	movq	%rdi, -8(%rbp)
	movq	%rsi, -16(%rbp)
	.loc 1 20 0
	movq	-8(%rbp), %rax
	movl	(%rax), %edx
	movq	-16(%rbp), %rax
	movl	(%rax), %eax
	subl	%eax, %edx
	movl	%edx, %eax
	.loc 1 21 0
	popq	%rbp
	.cfi_def_cfa 7, 8
	ret
	.cfi_endproc
.LFE2:
	.size	compare, .-compare
	.section	.rodata
.LC0:
	.string	"Running %s: "
.LC1:
	.string	"sum = %llu, took "
	.text
	.globl	sorted_if
	.type	sorted_if, @function
sorted_if:
.LFB3:
	.loc 1 24 0
	.cfi_startproc
	pushq	%rbp
	.cfi_def_cfa_offset 16
	.cfi_offset 6, -16
	movq	%rsp, %rbp
	.cfi_def_cfa_register 6
	subq	$16, %rsp
	.loc 1 25 0
	movl	$__func__.2811, %esi
	movl	$.LC0, %edi
	movl	$0, %eax
	call	printf
	.loc 1 28 0
	movl	$0, -12(%rbp)
	movq	$0, -8(%rbp)
	jmp	.L4
.L6:
	.loc 1 30 0
	movl	-12(%rbp), %eax
	cltq
	movl	sdata(,%rax,4), %eax
	cmpl	$128, %eax
	jle	.L5
	.loc 1 32 0
	movl	-12(%rbp), %eax
	cltq
	movl	sdata(,%rax,4), %eax
	cltq
	addq	%rax, -8(%rbp)
.L5:
	.loc 1 28 0
	addl	$1, -12(%rbp)
.L4:
	.loc 1 28 0 is_stmt 0 discriminator 1
	cmpl	$32767, -12(%rbp)
	jle	.L6
	.loc 1 35 0 is_stmt 1
	movq	-8(%rbp), %rax
	movq	%rax, %rsi
	movl	$.LC1, %edi
	movl	$0, %eax
	call	printf
	.loc 1 36 0
	leave
	.cfi_def_cfa 7, 8
	ret
	.cfi_endproc
.LFE3:
	.size	sorted_if, .-sorted_if
	.globl	sorted_bitwise
	.type	sorted_bitwise, @function
sorted_bitwise:
.LFB4:
	.loc 1 39 0
	.cfi_startproc
	pushq	%rbp
	.cfi_def_cfa_offset 16
	.cfi_offset 6, -16
	movq	%rsp, %rbp
	.cfi_def_cfa_register 6
	subq	$16, %rsp
	.loc 1 40 0
	movl	$__func__.2819, %esi
	movl	$.LC0, %edi
	movl	$0, %eax
	call	printf
	.loc 1 43 0
	movl	$0, -16(%rbp)
	movq	$0, -8(%rbp)
	jmp	.L8
.L9:
	.loc 1 45 0 discriminator 2
	movl	-16(%rbp), %eax
	cltq
	movl	sdata(,%rax,4), %eax
	addl	$-128, %eax
	sarl	$31, %eax
	movl	%eax, -12(%rbp)
	.loc 1 46 0 discriminator 2
	movl	-12(%rbp), %eax
	notl	%eax
	movl	%eax, %edx
	movl	-16(%rbp), %eax
	cltq
	movl	sdata(,%rax,4), %eax
	andl	%edx, %eax
	cltq
	addq	%rax, -8(%rbp)
	.loc 1 43 0 discriminator 2
	addl	$1, -16(%rbp)
.L8:
	.loc 1 43 0 is_stmt 0 discriminator 1
	cmpl	$32767, -16(%rbp)
	jle	.L9
	.loc 1 48 0 is_stmt 1
	movq	-8(%rbp), %rax
	movq	%rax, %rsi
	movl	$.LC1, %edi
	movl	$0, %eax
	call	printf
	.loc 1 49 0
	leave
	.cfi_def_cfa 7, 8
	ret
	.cfi_endproc
.LFE4:
	.size	sorted_bitwise, .-sorted_bitwise
	.globl	sorted_ternary
	.type	sorted_ternary, @function
sorted_ternary:
.LFB5:
	.loc 1 52 0
	.cfi_startproc
	pushq	%rbp
	.cfi_def_cfa_offset 16
	.cfi_offset 6, -16
	movq	%rsp, %rbp
	.cfi_def_cfa_register 6
	subq	$16, %rsp
	.loc 1 53 0
	movl	$__func__.2828, %esi
	movl	$.LC0, %edi
	movl	$0, %eax
	call	printf
	.loc 1 56 0
	movl	$0, -12(%rbp)
	movq	$0, -8(%rbp)
	jmp	.L11
.L12:
	.loc 1 58 0 discriminator 2
	movl	-12(%rbp), %eax
	cltq
	movl	sdata(,%rax,4), %eax
	cmpl	$192, %eax
	setg	%al
	movzbl	%al, %edx
	movl	-12(%rbp), %eax
	cltq
	movl	sdata(,%rax,4), %eax
	imull	%edx, %eax
	cltq
	addq	%rax, -8(%rbp)
	.loc 1 56 0 discriminator 2
	addl	$1, -12(%rbp)
.L11:
	.loc 1 56 0 is_stmt 0 discriminator 1
	cmpl	$32767, -12(%rbp)
	jle	.L12
	.loc 1 60 0 is_stmt 1
	movq	-8(%rbp), %rax
	movq	%rax, %rsi
	movl	$.LC1, %edi
	movl	$0, %eax
	call	printf
	.loc 1 61 0
	leave
	.cfi_def_cfa 7, 8
	ret
	.cfi_endproc
.LFE5:
	.size	sorted_ternary, .-sorted_ternary
	.globl	unsorted_if
	.type	unsorted_if, @function
unsorted_if:
.LFB6:
	.loc 1 64 0
	.cfi_startproc
	pushq	%rbp
	.cfi_def_cfa_offset 16
	.cfi_offset 6, -16
	movq	%rsp, %rbp
	.cfi_def_cfa_register 6
	subq	$16, %rsp
	.loc 1 65 0
	movl	$__func__.2836, %esi
	movl	$.LC0, %edi
	movl	$0, %eax
	call	printf
	.loc 1 68 0
	movl	$0, -12(%rbp)
	movq	$0, -8(%rbp)
	jmp	.L14
.L16:
	.loc 1 70 0
	movl	-12(%rbp), %eax
	cltq
	movl	data(,%rax,4), %eax
	cmpl	$128, %eax
	jle	.L15
	.loc 1 72 0
	movl	-12(%rbp), %eax
	cltq
	movl	data(,%rax,4), %eax
	cltq
	addq	%rax, -8(%rbp)
.L15:
	.loc 1 68 0
	addl	$1, -12(%rbp)
.L14:
	.loc 1 68 0 is_stmt 0 discriminator 1
	cmpl	$32767, -12(%rbp)
	jle	.L16
	.loc 1 75 0 is_stmt 1
	movq	-8(%rbp), %rax
	movq	%rax, %rsi
	movl	$.LC1, %edi
	movl	$0, %eax
	call	printf
	.loc 1 76 0
	leave
	.cfi_def_cfa 7, 8
	ret
	.cfi_endproc
.LFE6:
	.size	unsorted_if, .-unsorted_if
	.globl	unsorted_bitwise
	.type	unsorted_bitwise, @function
unsorted_bitwise:
.LFB7:
	.loc 1 79 0
	.cfi_startproc
	pushq	%rbp
	.cfi_def_cfa_offset 16
	.cfi_offset 6, -16
	movq	%rsp, %rbp
	.cfi_def_cfa_register 6
	subq	$16, %rsp
	.loc 1 80 0
	movl	$__func__.2844, %esi
	movl	$.LC0, %edi
	movl	$0, %eax
	call	printf
	.loc 1 83 0
	movl	$0, -16(%rbp)
	movq	$0, -8(%rbp)
	jmp	.L18
.L19:
	.loc 1 85 0 discriminator 2
	movl	-16(%rbp), %eax
	cltq
	movl	data(,%rax,4), %eax
	addl	$-128, %eax
	sarl	$31, %eax
	movl	%eax, -12(%rbp)
	.loc 1 86 0 discriminator 2
	movl	-12(%rbp), %eax
	notl	%eax
	movl	%eax, %edx
	movl	-16(%rbp), %eax
	cltq
	movl	data(,%rax,4), %eax
	andl	%edx, %eax
	cltq
	addq	%rax, -8(%rbp)
	.loc 1 83 0 discriminator 2
	addl	$1, -16(%rbp)
.L18:
	.loc 1 83 0 is_stmt 0 discriminator 1
	cmpl	$32767, -16(%rbp)
	jle	.L19
	.loc 1 88 0 is_stmt 1
	movq	-8(%rbp), %rax
	movq	%rax, %rsi
	movl	$.LC1, %edi
	movl	$0, %eax
	call	printf
	.loc 1 89 0
	leave
	.cfi_def_cfa 7, 8
	ret
	.cfi_endproc
.LFE7:
	.size	unsorted_bitwise, .-unsorted_bitwise
	.globl	unsorted_ternary
	.type	unsorted_ternary, @function
unsorted_ternary:
.LFB8:
	.loc 1 92 0
	.cfi_startproc
	pushq	%rbp
	.cfi_def_cfa_offset 16
	.cfi_offset 6, -16
	movq	%rsp, %rbp
	.cfi_def_cfa_register 6
	subq	$16, %rsp
	.loc 1 93 0
	movl	$__func__.2853, %esi
	movl	$.LC0, %edi
	movl	$0, %eax
	call	printf
	.loc 1 96 0
	movl	$0, -12(%rbp)
	movq	$0, -8(%rbp)
	jmp	.L21
.L22:
	.loc 1 98 0 discriminator 2
	movl	-12(%rbp), %eax
	cltq
	movl	data(,%rax,4), %eax
	cmpl	$192, %eax
	setg	%al
	movzbl	%al, %edx
	movl	-12(%rbp), %eax
	cltq
	movl	data(,%rax,4), %eax
	imull	%edx, %eax
	cltq
	addq	%rax, -8(%rbp)
	.loc 1 96 0 discriminator 2
	addl	$1, -12(%rbp)
.L21:
	.loc 1 96 0 is_stmt 0 discriminator 1
	cmpl	$32767, -12(%rbp)
	jle	.L22
	.loc 1 100 0 is_stmt 1
	movq	-8(%rbp), %rax
	movq	%rax, %rsi
	movl	$.LC1, %edi
	movl	$0, %eax
	call	printf
	.loc 1 101 0
	leave
	.cfi_def_cfa 7, 8
	ret
	.cfi_endproc
.LFE8:
	.size	unsorted_ternary, .-unsorted_ternary
	.section	.rodata
.LC2:
	.string	"%.f ms\n"
	.text
	.globl	main
	.type	main, @function
main:
.LFB9:
	.loc 1 104 0
	.cfi_startproc
	pushq	%rbp
	.cfi_def_cfa_offset 16
	.cfi_offset 6, -16
	movq	%rsp, %rbp
	.cfi_def_cfa_register 6
	subq	$64, %rsp
	.loc 1 105 0
	movq	$sorted_if, -48(%rbp)
	movq	$sorted_bitwise, -40(%rbp)
	movq	$sorted_ternary, -32(%rbp)
	movq	$unsorted_if, -24(%rbp)
	movq	$unsorted_bitwise, -16(%rbp)
	movq	$unsorted_ternary, -8(%rbp)
	.loc 1 106 0
	movl	$6, -64(%rbp)
	.loc 1 110 0
	movl	$0, %edi
	call	time
	movl	%eax, %edi
	call	srand
	.loc 1 111 0
	movl	$0, -60(%rbp)
	jmp	.L24
.L25:
	.loc 1 113 0 discriminator 2
	call	rand
	cltd
	shrl	$24, %edx
	addl	%edx, %eax
	movzbl	%al, %eax
	subl	%edx, %eax
	movl	%eax, %edx
	movl	-60(%rbp), %eax
	cltq
	movl	%edx, data(,%rax,4)
	movl	-60(%rbp), %eax
	cltq
	movl	data(,%rax,4), %edx
	movl	-60(%rbp), %eax
	cltq
	movl	%edx, sdata(,%rax,4)
	.loc 1 111 0 discriminator 2
	addl	$1, -60(%rbp)
.L24:
	.loc 1 111 0 is_stmt 0 discriminator 1
	cmpl	$32767, -60(%rbp)
	jle	.L25
	.loc 1 117 0 is_stmt 1
	movl	$compare, %ecx
	movl	$4, %edx
	movl	$32768, %esi
	movl	$sdata, %edi
	call	qsort
	.loc 1 120 0
	jmp	.L26
.L27:
	.loc 1 122 0
	call	clock
	movq	%rax, -56(%rbp)
	.loc 1 123 0
	movl	-64(%rbp), %eax
	cltq
	movq	-48(%rbp,%rax,8), %rax
	call	*%rax
	.loc 1 124 0
	call	clock
	subq	-56(%rbp), %rax
	cvtsi2sdq	%rax, %xmm0
	movl	$.LC2, %edi
	movl	$1, %eax
	call	printf
.L26:
	.loc 1 120 0 discriminator 1
	movl	-64(%rbp), %eax
	leal	-1(%rax), %edx
	movl	%edx, -64(%rbp)
	testl	%eax, %eax
	jne	.L27
	.loc 1 126 0
	leave
	.cfi_def_cfa 7, 8
	ret
	.cfi_endproc
.LFE9:
	.size	main, .-main
	.section	.rodata
	.type	__func__.2811, @object
	.size	__func__.2811, 10
__func__.2811:
	.string	"sorted_if"
	.type	__func__.2819, @object
	.size	__func__.2819, 15
__func__.2819:
	.string	"sorted_bitwise"
	.type	__func__.2828, @object
	.size	__func__.2828, 15
__func__.2828:
	.string	"sorted_ternary"
	.type	__func__.2836, @object
	.size	__func__.2836, 12
__func__.2836:
	.string	"unsorted_if"
	.align 16
	.type	__func__.2844, @object
	.size	__func__.2844, 17
__func__.2844:
	.string	"unsorted_bitwise"
	.align 16
	.type	__func__.2853, @object
	.size	__func__.2853, 17
__func__.2853:
	.string	"unsorted_ternary"
	.text
.Letext0:
	.file 2 "/usr/include/x86_64-linux-gnu/bits/types.h"
	.file 3 "/usr/include/time.h"
	.section	.note.GNU-stack,"",@progbits
